; Function Attrs: mustprogress nounwind uwtable
define dso_local noundef i32 @_ZNK4llvm19TargetTransformInfo16getCacheLineSizeEv(ptr nocapture noundef nonnull readonly align 8 dereferenceable(8) %0) local_unnamed_addr #0 align 2 {
  %2 = load i16, ptr getelementptr inbounds nuw (i8, ptr @_ZL13CacheLineSize, i64 8), align 8
  %.not = icmp eq i16 %2, 0
  br i1 %.not, label %5, label %3

3:                                                ; preds = %1
  %4 = load i32, ptr getelementptr inbounds (i8, ptr @_ZL13CacheLineSize, i64 128), align 8
  br label %11

5:                                                ; preds = %1
  %6 = load ptr, ptr %0, align 8
  %7 = load ptr, ptr %6, align 8
  %8 = getelementptr inbounds i8, ptr %7, i64 928
  %9 = load ptr, ptr %8, align 8
  %10 = tail call noundef i32 %9(ptr noundef nonnull align 8 dereferenceable(8) %6) #25
  br label %11

11:                                               ; preds = %5, %3
  %12 = phi i32 [ %4, %3 ], [ %10, %5 ]
  ret i32 %12
}